(dp1
S'id'
p2
(dp3
S'length'
p4
I512
sS'unique'
p5
I00
sS'sortable'
p6
I2
sS'sql'
p7
S'INT AUTO_INCREMENT NOT NULL'
p8
sS'notnull'
p9
I00
sS'type'
p10
g2
ssS'Detalle'
p11
(dp12
g4
I512
sg5
I00
sg6
I3
sg7
S'VARCHAR(512)'
p13
sg9
I00
sg10
S'string'
p14
ssS'current_record'
p15
(dp16
g4
I512
sg5
I00
sg6
I1
sg7
S'INT  , INDEX current_record__idx (current_record), FOREIGN KEY (current_record) REFERENCES Especializacion (id) ON DELETE CASCADE'
p17
sg9
I00
sg10
S'reference Especializacion'
p18
ss.