(dp1
S'output'
p2
S'<class \'gluon.contrib.pymysql.err.ProgrammingError\'> (1146, u"Table \'ayd2.Especializacion\' doesn\'t exist")'
p3
sS'layer'
p4
S'/Users/daytongarcia/web2py/applications/Proyecto_Fase_I/controllers/default.py'
p5
sS'code'
p6
S'# -*- coding: utf-8 -*-\n### required - do no delete\ndef user(): return dict(form=auth())\ndef download(): return response.download(request,db)\ndef call(): return service()\n### end requires\ndef index():\n    return dict()\n\n@auth.requires_login()\ndef especializacion():\n    form = SQLFORM.smartgrid(db.Especializacion,onupdate=auth.archive)\n    return locals()\n\ndef error():\n    return dict()\n\nresponse._vars=response._caller(especializacion)\n'
p7
sS'snapshot'
p8
(dp9
S'exception'
p10
(dp11
S'__module__'
p12
S"'gluon.contrib.pymysql.err'"
p13
sS'__getslice__'
p14
S"<method-wrapper '__getslice__' of ProgrammingError object>"
p15
sS'__str__'
p16
S"<method-wrapper '__str__' of ProgrammingError object>"
p17
sS'__reduce__'
p18
S'<built-in method __reduce__ of ProgrammingError object>'
p19
sS'__dict__'
p20
S'{}'
p21
sS'__sizeof__'
p22
S'<built-in method __sizeof__ of ProgrammingError object>'
p23
sS'__weakref__'
p24
S'None'
p25
sS'__init__'
p26
S"<method-wrapper '__init__' of ProgrammingError object>"
p27
sS'__setattr__'
p28
S"<method-wrapper '__setattr__' of ProgrammingError object>"
p29
sS'__reduce_ex__'
p30
S'<built-in method __reduce_ex__ of ProgrammingError object>'
p31
sS'__new__'
p32
S'<built-in method __new__ of type object>'
p33
sS'__format__'
p34
S'<built-in method __format__ of ProgrammingError object>'
p35
sS'__class__'
p36
S"<class 'gluon.contrib.pymysql.err.ProgrammingError'>"
p37
sS'__doc__'
p38
S"'Exception raised for programming errors, e.g. ta...t, wrong number\\n    of parameters specified, etc.'"
p39
sS'__getitem__'
p40
S"<method-wrapper '__getitem__' of ProgrammingError object>"
p41
sS'__setstate__'
p42
S'<built-in method __setstate__ of ProgrammingError object>'
p43
sS'__getattribute__'
p44
S"<method-wrapper '__getattribute__' of ProgrammingError object>"
p45
sS'args'
p46
S'(1146, u"Table \'ayd2.Especializacion\' doesn\'t exist")'
p47
sS'__subclasshook__'
p48
S'<built-in method __subclasshook__ of type object>'
p49
sS'__unicode__'
p50
S'<built-in method __unicode__ of ProgrammingError object>'
p51
sS'__delattr__'
p52
S"<method-wrapper '__delattr__' of ProgrammingError object>"
p53
sS'__repr__'
p54
S"<method-wrapper '__repr__' of ProgrammingError object>"
p55
sS'__hash__'
p56
S"<method-wrapper '__hash__' of ProgrammingError object>"
p57
ssS'evalue'
p58
S'(1146, u"Table \'ayd2.Especializacion\' doesn\'t exist")'
p59
sS'request'
p60
cgluon.html
XML_unpickle
p61
(S's\xbbf\x00\x00<div><table><tr><td style="font-weight:bold;vertical-align:top;">ajax</td><td style="vertical-align:top;">:</td><td><div>False</div></td></tr><tr><td style="font-weight:bold;vertical-align:top;">application</td><td style="vertical-align:top;">:</td><td><div>Proyecto_Fase_I</div></td></tr><tr><td style="font-weight:bold;vertical-align:top;">args</td><td style="vertical-align:top;">:</td><td><div><table><tr><td><div>Especializacion</div></td></tr><tr><td><div>new</div></td></tr><tr><td><div>Especializacion</div></td></tr></table></div></td></tr><tr><td style="font-weight:bold;vertical-align:top;">cid</td><td style="vertical-align:top;">:</td><td><div>None</div></td></tr><tr><td style="font-weight:bold;vertical-align:top;">client</td><td style="vertical-align:top;">:</td><td><div>127.0.0.1</div></td></tr><tr><td style="font-weight:bold;vertical-align:top;">controller</td><td style="vertical-align:top;">:</td><td><div>default</div></td></tr><tr><td style="font-weight:bold;vertical-align:top;">cookies</td><td style="vertical-align:top;">:</td><td><div><table><tr><td style="font-weight:bold;vertical-align:top;">session_id_admin</td><td style="vertical-align:top;">:</td><td><div>127.0.0.1-15385548-b052-45d3-b664-c8b2477558cc<table><tr><td style="font-weight:bold;vertical-align:top;">comment</td><td style="vertical-align:top;">:</td><td><div></div></td></tr><tr><td style="font-weight:bold;vertical-align:top;">domain</td><td style="vertical-align:top;">:</td><td><div></div></td></tr><tr><td style="font-weight:bold;vertical-align:top;">expires</td><td style="vertical-align:top;">:</td><td><div></div></td></tr><tr><td style="font-weight:bold;vertical-align:top;">httponly</td><td style="vertical-align:top;">:</td><td><div></div></td></tr><tr><td style="font-weight:bold;vertical-align:top;">max-age</td><td style="vertical-align:top;">:</td><td><div></div></td></tr><tr><td style="font-weight:bold;vertical-align:top;">path</td><td style="vertical-align:top;">:</td><td><div></div></td></tr><tr><td style="font-weight:bold;vertical-align:top;">secure</td><td style="vertical-align:top;">:</td><td><div></div></td></tr><tr><td style="font-weight:bold;vertical-align:top;">version</td><td style="vertical-align:top;">:</td><td><div></div></td></tr></table></div></td></tr><tr><td style="font-weight:bold;vertical-align:top;">session_id_proyecto_fase_i</td><td style="vertical-align:top;">:</td><td><div>3:03b32bba-4469-4353-8537-4431ab998da2<table><tr><td style="font-weight:bold;vertical-align:top;">comment</td><td style="vertical-align:top;">:</td><td><div></div></td></tr><tr><td style="font-weight:bold;vertical-align:top;">domain</td><td style="vertical-align:top;">:</td><td><div></div></td></tr><tr><td style="font-weight:bold;vertical-align:top;">expires</td><td style="vertical-align:top;">:</td><td><div></div></td></tr><tr><td style="font-weight:bold;vertical-align:top;">httponly</td><td style="vertical-align:top;">:</td><td><div></div></td></tr><tr><td style="font-weight:bold;vertical-align:top;">max-age</td><td style="vertical-align:top;">:</td><td><div></div></td></tr><tr><td style="font-weight:bold;vertical-align:top;">path</td><td style="vertical-align:top;">:</td><td><div></div></td></tr><tr><td style="font-weight:bold;vertical-align:top;">secure</td><td style="vertical-align:top;">:</td><td><div></div></td></tr><tr><td style="font-weight:bold;vertical-align:top;">version</td><td style="vertical-align:top;">:</td><td><div></div></td></tr></table></div></td></tr><tr><td style="font-weight:bold;vertical-align:top;">session_id_welcome</td><td style="vertical-align:top;">:</td><td><div>127.0.0.1-25d0dba0-b5d0-48fb-b5b4-99f14c937edb<table><tr><td style="font-weight:bold;vertical-align:top;">comment</td><td style="vertical-align:top;">:</td><td><div></div></td></tr><tr><td style="font-weight:bold;vertical-align:top;">domain</td><td style="vertical-align:top;">:</td><td><div></div></td></tr><tr><td style="font-weight:bold;vertical-align:top;">expires</td><td style="vertical-align:top;">:</td><td><div></div></td></tr><tr><td style="font-weight:bold;vertical-align:top;">httponly</td><td style="vertical-align:top;">:</td><td><div></div></td></tr><tr><td style="font-weight:bold;vertical-align:top;">max-age</td><td style="vertical-align:top;">:</td><td><div></div></td></tr><tr><td style="font-weight:bold;vertical-align:top;">path</td><td style="vertical-align:top;">:</td><td><div></div></td></tr><tr><td style="font-weight:bold;vertical-align:top;">secure</td><td style="vertical-align:top;">:</td><td><div></div></td></tr><tr><td style="font-weight:bold;vertical-align:top;">version</td><td style="vertical-align:top;">:</td><td><div></div></td></tr></table></div></td></tr></table></div></td></tr><tr><td style="font-weight:bold;vertical-align:top;">env</td><td style="vertical-align:top;">:</td><td><div><table><tr><td style="font-weight:bold;vertical-align:top;">CONTENT_LENGTH</td><td style="vertical-align:top;">:</td><td><div>386</div></td></tr><tr><td style="font-weight:bold;vertical-align:top;">CONTENT_TYPE</td><td style="vertical-align:top;">:</td><td><div>multipart/form-data; boundary=----WebKitFormBoundary47WLd7Pd8uAwRPfL</div></td></tr><tr><td style="font-weight:bold;vertical-align:top;">HTTP_ACCEPT</td><td style="vertical-align:top;">:</td><td><div>text/html,application/xhtml+xml,application/xml;q=0.9,*/*;q=0.8</div></td></tr><tr><td style="font-weight:bold;vertical-align:top;">HTTP_ACCEPT_ENCODING</td><td style="vertical-align:top;">:</td><td><div>gzip, deflate</div></td></tr><tr><td style="font-weight:bold;vertical-align:top;">HTTP_ACCEPT_LANGUAGE</td><td style="vertical-align:top;">:</td><td><div>es-es</div></td></tr><tr><td style="font-weight:bold;vertical-align:top;">HTTP_CONNECTION</td><td style="vertical-align:top;">:</td><td><div>keep-alive</div></td></tr><tr><td style="font-weight:bold;vertical-align:top;">HTTP_CONTENT_LENGTH</td><td style="vertical-align:top;">:</td><td><div>386</div></td></tr><tr><td style="font-weight:bold;vertical-align:top;">HTTP_CONTENT_TYPE</td><td style="vertical-align:top;">:</td><td><div>multipart/form-data; boundary=----WebKitFormBoundary47WLd7Pd8uAwRPfL</div></td></tr><tr><td style="font-weight:bold;vertical-align:top;">HTTP_COOKIE</td><td style="vertical-align:top;">:</td><td><div>session_id_admin=127.0.0.1-15385548-b052-45d3-b664-c8b2477558cc; session_id_proyecto_fase_i=&quot;3:03b32bba-4469-4353-8537-4431ab998da2&quot;; session_id_welcome=127.0.0.1-25d0dba0-b5d0-48fb-b5b4-99f14c937edb</div></td></tr><tr><td style="font-weight:bold;vertical-align:top;">HTTP_HOST</td><td style="vertical-align:top;">:</td><td><div>127.0.0.1:8000</div></td></tr><tr><td style="font-weight:bold;vertical-align:top;">HTTP_ORIGIN</td><td style="vertical-align:top;">:</td><td><div>http://127.0.0.1:8000</div></td></tr><tr><td style="font-weight:bold;vertical-align:top;">HTTP_REFERER</td><td style="vertical-align:top;">:</td><td><div>http://127.0.0.1:8000/Proyecto_Fase_I/default/especializacion/Especializacion/new/Especializacion?_signature=2edf1152c91ba13dee7861194d8e9815182278e6</div></td></tr><tr><td style="font-weight:bold;vertical-align:top;">HTTP_USER_AGENT</td><td style="vertical-align:top;">:</td><td><div>Mozilla/5.0 (Macintosh; Intel Mac OS X 10_11_3) AppleWebKit/601.4.4 (KHTML, like Gecko) Version/9.0.3 Safari/601.4.4</div></td></tr><tr><td style="font-weight:bold;vertical-align:top;">PATH_INFO</td><td style="vertical-align:top;">:</td><td><div>/Proyecto_Fase_I/default/especializacion/Especializacion/new/Especializacion</div></td></tr><tr><td style="font-weight:bold;vertical-align:top;">QUERY_STRING</td><td style="vertical-align:top;">:</td><td><div>_signature=2edf1152c91ba13dee7861194d8e9815182278e6</div></td></tr><tr><td style="font-weight:bold;vertical-align:top;">REMOTE_ADDR</td><td style="vertical-align:top;">:</td><td><div>127.0.0.1</div></td></tr><tr><td style="font-weight:bold;vertical-align:top;">REMOTE_PORT</td><td style="vertical-align:top;">:</td><td><div>49703</div></td></tr><tr><td style="font-weight:bold;vertical-align:top;">REQUEST_METHOD</td><td style="vertical-align:top;">:</td><td><div>POST</div></td></tr><tr><td style="font-weight:bold;vertical-align:top;">SCRIPT_NAME</td><td style="vertical-align:top;">:</td><td><div></div></td></tr><tr><td style="font-weight:bold;vertical-align:top;">SERVER_NAME</td><td style="vertical-align:top;">:</td><td><div>MacBook-Air-de-Dayton.local</div></td></tr><tr><td style="font-weight:bold;vertical-align:top;">SERVER_PORT</td><td style="vertical-align:top;">:</td><td><div>8000</div></td></tr><tr><td style="font-weight:bold;vertical-align:top;">SERVER_PROTOCOL</td><td style="vertical-align:top;">:</td><td><div>HTTP/1.1</div></td></tr><tr><td style="font-weight:bold;vertical-align:top;">SERVER_SOFTWARE</td><td style="vertical-align:top;">:</td><td><div>Rocket 1.2.6</div></td></tr><tr><td style="font-weight:bold;vertical-align:top;">app_folders</td><td style="vertical-align:top;">:</td><td><div>set([&#x27;/Users/daytongarcia/web2py/applications/proyectocpm/&#x27;, &#x27;/Users/daytongarcia/web2py/applications/welcome/&#x27;, &#x27;/Users/daytongarcia/web2py/applications/Proyecto_Fase_I/&#x27;, &#x27;/Users/daytongarcia/web2py/applications/admin/&#x27;])</div></td></tr><tr><td style="font-weight:bold;vertical-align:top;">applications_parent</td><td style="vertical-align:top;">:</td><td><div>/Users/daytongarcia/web2py</div></td></tr><tr><td style="font-weight:bold;vertical-align:top;">cmd_args</td><td style="vertical-align:top;">:</td><td><div><table></table></div></td></tr><tr><td style="font-weight:bold;vertical-align:top;">cmd_options</td><td style="vertical-align:top;">:</td><td><div>&lt;Values at 0x10f489200: {&#x27;verbose&#x27;: False, &#x27;ip&#x27;: &#x27;127.0.0.1&#x27;, &#x27;debuglevel&#x27;: 30, &#x27;with_scheduler&#x27;: False, &#x27;ips&#x27;: [&#x27;10.56.224.13&#x27;, &#x27;fe80::6676:baff:feb5:f91c%en0&#x27;], &#x27;shutdown_timeout&#x27;: 5, &#x27;taskbar&#x27;: False, &#x27;with_coverage&#x27;: False, &#x27;scheduler_groups&#x27;: None, &#x27;port&#x27;: 8000, &#x27;maxthreads&#x27;: None, &#x27;softcron&#x27;: False, &#x27;server_name&#x27;: &#x27;MacBook-Air-de-Dayton.local&#x27;, &#x27;bpython&#x27;: False, &#x27;nogui&#x27;: False, &#x27;pid_filename&#x27;: &#x27;httpserver.pid&#x27;, &#x27;print_errors&#x27;: False, &#x27;extcron&#x27;: False, &#x27;runcron&#x27;: False, &#x27;run_system_tests&#x27;: False, &#x27;test&#x27;: None, &#x27;folder&#x27;: &#x27;/Users/daytongarcia/web2py&#x27;, &#x27;config&#x27;: &#x27;&#x27;, &#x27;minthreads&#x27;: None, &#x27;shell&#x27;: None, &#x27;run&#x27;: &#x27;&#x27;, &#x27;log_filename&#x27;: &#x27;httpserver.log&#x27;, &#x27;profiler_dir&#x27;: None, &#x27;args&#x27;: [&#x27;&#x27;], &#x27;socket_timeout&#x27;: 5, &#x27;ssl_ca_certificate&#x27;: None, &#x27;scheduler&#x27;: None, &#x27;interfaces&#x27;: None, &#x27;ssl_private_key&#x27;: &#x27;&#x27;, &#x27;gae&#x27;: None, &#x27;password&#x27;: &#x27;&lt;ask&gt;&#x27;, &#x27;request_queue_size&#x27;: 5, &#x27;ssl_certificate&#x27;: &#x27;&#x27;, &#x27;cronjob&#x27;: False, &#x27;numthreads&#x27;: None, &#x27;quiet&#x27;: False, &#x27;import_models&#x27;: False, &#x27;timeout&#x27;: 10, &#x27;plain&#x27;: False, &#x27;nobanner&#x27;: False}&gt;</div></td></tr><tr><td style="font-weight:bold;vertical-align:top;">content_length</td><td style="vertical-align:top;">:</td><td><div>386</div></td></tr><tr><td style="font-weight:bold;vertical-align:top;">content_type</td><td style="vertical-align:top;">:</td><td><div>multipart/form-data; boundary=----WebKitFormBoundary47WLd7Pd8uAwRPfL</div></td></tr><tr><td style="font-weight:bold;vertical-align:top;">db_sessions</td><td style="vertical-align:top;">:</td><td><div>set([&#x27;Proyecto_Fase_I&#x27;])</div></td></tr><tr><td style="font-weight:bold;vertical-align:top;">debugging</td><td style="vertical-align:top;">:</td><td><div>True</div></td></tr><tr><td style="font-weight:bold;vertical-align:top;">gluon_parent</td><td style="vertical-align:top;">:</td><td><div>/Users/daytongarcia/web2py</div></td></tr><tr><td style="font-weight:bold;vertical-align:top;">http_accept</td><td style="vertical-align:top;">:</td><td><div>text/html,application/xhtml+xml,application/xml;q=0.9,*/*;q=0.8</div></td></tr><tr><td style="font-weight:bold;vertical-align:top;">http_accept_encoding</td><td style="vertical-align:top;">:</td><td><div>gzip, deflate</div></td></tr><tr><td style="font-weight:bold;vertical-align:top;">http_accept_language</td><td style="vertical-align:top;">:</td><td><div>es-es</div></td></tr><tr><td style="font-weight:bold;vertical-align:top;">http_connection</td><td style="vertical-align:top;">:</td><td><div>keep-alive</div></td></tr><tr><td style="font-weight:bold;vertical-align:top;">http_content_length</td><td style="vertical-align:top;">:</td><td><div>386</div></td></tr><tr><td style="font-weight:bold;vertical-align:top;">http_content_type</td><td style="vertical-align:top;">:</td><td><div>multipart/form-data; boundary=----WebKitFormBoundary47WLd7Pd8uAwRPfL</div></td></tr><tr><td style="font-weight:bold;vertical-align:top;">http_cookie</td><td style="vertical-align:top;">:</td><td><div>session_id_admin=127.0.0.1-15385548-b052-45d3-b664-c8b2477558cc; session_id_proyecto_fase_i=&quot;3:03b32bba-4469-4353-8537-4431ab998da2&quot;; session_id_welcome=127.0.0.1-25d0dba0-b5d0-48fb-b5b4-99f14c937edb</div></td></tr><tr><td style="font-weight:bold;vertical-align:top;">http_host</td><td style="vertical-align:top;">:</td><td><div>127.0.0.1:8000</div></td></tr><tr><td style="font-weight:bold;vertical-align:top;">http_origin</td><td style="vertical-align:top;">:</td><td><div>http://127.0.0.1:8000</div></td></tr><tr><td style="font-weight:bold;vertical-align:top;">http_referer</td><td style="vertical-align:top;">:</td><td><div>http://127.0.0.1:8000/Proyecto_Fase_I/default/especializacion/Especializacion/new/Especializacion?_signature=2edf1152c91ba13dee7861194d8e9815182278e6</div></td></tr><tr><td style="font-weight:bold;vertical-align:top;">http_user_agent</td><td style="vertical-align:top;">:</td><td><div>Mozilla/5.0 (Macintosh; Intel Mac OS X 10_11_3) AppleWebKit/601.4.4 (KHTML, like Gecko) Version/9.0.3 Safari/601.4.4</div></td></tr><tr><td style="font-weight:bold;vertical-align:top;">is_jython</td><td style="vertical-align:top;">:</td><td><div>False</div></td></tr><tr><td style="font-weight:bold;vertical-align:top;">is_pypy</td><td style="vertical-align:top;">:</td><td><div>False</div></td></tr><tr><td style="font-weight:bold;vertical-align:top;">is_source</td><td style="vertical-align:top;">:</td><td><div>True</div></td></tr><tr><td style="font-weight:bold;vertical-align:top;">local_hosts</td><td style="vertical-align:top;">:</td><td><div><table><tr><td><div>::ffff:127.0.0.1</div></td></tr><tr><td><div>::1</div></td></tr><tr><td><div>macbook-air-de-dayton.local</div></td></tr><tr><td><div>MacBook-Air-de-Dayton.local</div></td></tr><tr><td><div>10.56.224.13</div></td></tr><tr><td><div>127.0.0.1</div></td></tr><tr><td><div>fe80::6676:baff:feb5:f91c%en0</div></td></tr></table></div></td></tr><tr><td style="font-weight:bold;vertical-align:top;">path_info</td><td style="vertical-align:top;">:</td><td><div>/Proyecto_Fase_I/default/especializacion/Especializacion/new/Especializacion</div></td></tr><tr><td style="font-weight:bold;vertical-align:top;">query_string</td><td style="vertical-align:top;">:</td><td><div>_signature=2edf1152c91ba13dee7861194d8e9815182278e6</div></td></tr><tr><td style="font-weight:bold;vertical-align:top;">remote_addr</td><td style="vertical-align:top;">:</td><td><div>127.0.0.1</div></td></tr><tr><td style="font-weight:bold;vertical-align:top;">remote_port</td><td style="vertical-align:top;">:</td><td><div>49703</div></td></tr><tr><td style="font-weight:bold;vertical-align:top;">request_method</td><td style="vertical-align:top;">:</td><td><div>POST</div></td></tr><tr><td style="font-weight:bold;vertical-align:top;">request_uri</td><td style="vertical-align:top;">:</td><td><div>/Proyecto_Fase_I/default/especializacion/Especializacion/new/Especializacion?_signature=2edf1152c91ba13dee7861194d8e9815182278e6</div></td></tr><tr><td style="font-weight:bold;vertical-align:top;">script_name</td><td style="vertical-align:top;">:</td><td><div></div></td></tr><tr><td style="font-weight:bold;vertical-align:top;">server_name</td><td style="vertical-align:top;">:</td><td><div>MacBook-Air-de-Dayton.local</div></td></tr><tr><td style="font-weight:bold;vertical-align:top;">server_port</td><td style="vertical-align:top;">:</td><td><div>8000</div></td></tr><tr><td style="font-weight:bold;vertical-align:top;">server_protocol</td><td style="vertical-align:top;">:</td><td><div>HTTP/1.1</div></td></tr><tr><td style="font-weight:bold;vertical-align:top;">server_software</td><td style="vertical-align:top;">:</td><td><div>Rocket 1.2.6</div></td></tr><tr><td style="font-weight:bold;vertical-align:top;">web2py_path</td><td style="vertical-align:top;">:</td><td><div>/Users/daytongarcia/web2py</div></td></tr><tr><td style="font-weight:bold;vertical-align:top;">web2py_version</td><td style="vertical-align:top;">:</td><td><div>2.13.4-stable+timestamp.2015.12.26.04.59.39</div></td></tr><tr><td style="font-weight:bold;vertical-align:top;">wsgi.errors</td><td style="vertical-align:top;">:</td><td><div>&lt;open file &#x27;&lt;stderr&gt;&#x27;, mode &#x27;w&#x27; at 0x10dc901e0&gt;</div></td></tr><tr><td style="font-weight:bold;vertical-align:top;">wsgi.file_wrapper</td><td style="vertical-align:top;">:</td><td><div>&lt;class wsgiref.util.FileWrapper at 0x10f430808&gt;</div></td></tr><tr><td style="font-weight:bold;vertical-align:top;">wsgi.input</td><td style="vertical-align:top;">:</td><td><div>&lt;socket._fileobject object at 0x115eae850&gt;</div></td></tr><tr><td style="font-weight:bold;vertical-align:top;">wsgi.multiprocess</td><td style="vertical-align:top;">:</td><td><div>False</div></td></tr><tr><td style="font-weight:bold;vertical-align:top;">wsgi.multithread</td><td style="vertical-align:top;">:</td><td><div>True</div></td></tr><tr><td style="font-weight:bold;vertical-align:top;">wsgi.run_once</td><td style="vertical-align:top;">:</td><td><div>False</div></td></tr><tr><td style="font-weight:bold;vertical-align:top;">wsgi.url_scheme</td><td style="vertical-align:top;">:</td><td><div>http</div></td></tr><tr><td style="font-weight:bold;vertical-align:top;">wsgi.version</td><td style="vertical-align:top;">:</td><td><div><table><tr><td><div>1</div></td></tr><tr><td><div>0</div></td></tr></table></div></td></tr><tr><td style="font-weight:bold;vertical-align:top;">wsgi_errors</td><td style="vertical-align:top;">:</td><td><div>&lt;open file &#x27;&lt;stderr&gt;&#x27;, mode &#x27;w&#x27; at 0x10dc901e0&gt;</div></td></tr><tr><td style="font-weight:bold;vertical-align:top;">wsgi_file_wrapper</td><td style="vertical-align:top;">:</td><td><div>&lt;class wsgiref.util.FileWrapper at 0x10f430808&gt;</div></td></tr><tr><td style="font-weight:bold;vertical-align:top;">wsgi_input</td><td style="vertical-align:top;">:</td><td><div>&lt;socket._fileobject object at 0x115eae850&gt;</div></td></tr><tr><td style="font-weight:bold;vertical-align:top;">wsgi_multiprocess</td><td style="vertical-align:top;">:</td><td><div>False</div></td></tr><tr><td style="font-weight:bold;vertical-align:top;">wsgi_multithread</td><td style="vertical-align:top;">:</td><td><div>True</div></td></tr><tr><td style="font-weight:bold;vertical-align:top;">wsgi_run_once</td><td style="vertical-align:top;">:</td><td><div>False</div></td></tr><tr><td style="font-weight:bold;vertical-align:top;">wsgi_url_scheme</td><td style="vertical-align:top;">:</td><td><div>http</div></td></tr><tr><td style="font-weight:bold;vertical-align:top;">wsgi_version</td><td style="vertical-align:top;">:</td><td><div><table><tr><td><div>1</div></td></tr><tr><td><div>0</div></td></tr></table></div></td></tr></table></div></td></tr><tr><td style="font-weight:bold;vertical-align:top;">extension</td><td style="vertical-align:top;">:</td><td><div>html</div></td></tr><tr><td style="font-weight:bold;vertical-align:top;">folder</td><td style="vertical-align:top;">:</td><td><div>/Users/daytongarcia/web2py/applications/Proyecto_Fase_I/</div></td></tr><tr><td style="font-weight:bold;vertical-align:top;">function</td><td style="vertical-align:top;">:</td><td><div>especializacion</div></td></tr><tr><td style="font-weight:bold;vertical-align:top;">global_settings</td><td style="vertical-align:top;">:</td><td><div><table><tr><td style="font-weight:bold;vertical-align:top;">app_folders</td><td style="vertical-align:top;">:</td><td><div>set([&#x27;/Users/daytongarcia/web2py/applications/proyectocpm/&#x27;, &#x27;/Users/daytongarcia/web2py/applications/welcome/&#x27;, &#x27;/Users/daytongarcia/web2py/applications/Proyecto_Fase_I/&#x27;, &#x27;/Users/daytongarcia/web2py/applications/admin/&#x27;])</div></td></tr><tr><td style="font-weight:bold;vertical-align:top;">applications_parent</td><td style="vertical-align:top;">:</td><td><div>/Users/daytongarcia/web2py</div></td></tr><tr><td style="font-weight:bold;vertical-align:top;">cmd_args</td><td style="vertical-align:top;">:</td><td><div><table></table></div></td></tr><tr><td style="font-weight:bold;vertical-align:top;">cmd_options</td><td style="vertical-align:top;">:</td><td><div>&lt;Values at 0x10f489200: {&#x27;verbose&#x27;: False, &#x27;ip&#x27;: &#x27;127.0.0.1&#x27;, &#x27;debuglevel&#x27;: 30, &#x27;with_scheduler&#x27;: False, &#x27;ips&#x27;: [&#x27;10.56.224.13&#x27;, &#x27;fe80::6676:baff:feb5:f91c%en0&#x27;], &#x27;shutdown_timeout&#x27;: 5, &#x27;taskbar&#x27;: False, &#x27;with_coverage&#x27;: False, &#x27;scheduler_groups&#x27;: None, &#x27;port&#x27;: 8000, &#x27;maxthreads&#x27;: None, &#x27;softcron&#x27;: False, &#x27;server_name&#x27;: &#x27;MacBook-Air-de-Dayton.local&#x27;, &#x27;bpython&#x27;: False, &#x27;nogui&#x27;: False, &#x27;pid_filename&#x27;: &#x27;httpserver.pid&#x27;, &#x27;print_errors&#x27;: False, &#x27;extcron&#x27;: False, &#x27;runcron&#x27;: False, &#x27;run_system_tests&#x27;: False, &#x27;test&#x27;: None, &#x27;folder&#x27;: &#x27;/Users/daytongarcia/web2py&#x27;, &#x27;config&#x27;: &#x27;&#x27;, &#x27;minthreads&#x27;: None, &#x27;shell&#x27;: None, &#x27;run&#x27;: &#x27;&#x27;, &#x27;log_filename&#x27;: &#x27;httpserver.log&#x27;, &#x27;profiler_dir&#x27;: None, &#x27;args&#x27;: [&#x27;&#x27;], &#x27;socket_timeout&#x27;: 5, &#x27;ssl_ca_certificate&#x27;: None, &#x27;scheduler&#x27;: None, &#x27;interfaces&#x27;: None, &#x27;ssl_private_key&#x27;: &#x27;&#x27;, &#x27;gae&#x27;: None, &#x27;password&#x27;: &#x27;&lt;ask&gt;&#x27;, &#x27;request_queue_size&#x27;: 5, &#x27;ssl_certificate&#x27;: &#x27;&#x27;, &#x27;cronjob&#x27;: False, &#x27;numthreads&#x27;: None, &#x27;quiet&#x27;: False, &#x27;import_models&#x27;: False, &#x27;timeout&#x27;: 10, &#x27;plain&#x27;: False, &#x27;nobanner&#x27;: False}&gt;</div></td></tr><tr><td style="font-weight:bold;vertical-align:top;">db_sessions</td><td style="vertical-align:top;">:</td><td><div>set([&#x27;Proyecto_Fase_I&#x27;])</div></td></tr><tr><td style="font-weight:bold;vertical-align:top;">debugging</td><td style="vertical-align:top;">:</td><td><div>True</div></td></tr><tr><td style="font-weight:bold;vertical-align:top;">gluon_parent</td><td style="vertical-align:top;">:</td><td><div>/Users/daytongarcia/web2py</div></td></tr><tr><td style="font-weight:bold;vertical-align:top;">is_jython</td><td style="vertical-align:top;">:</td><td><div>False</div></td></tr><tr><td style="font-weight:bold;vertical-align:top;">is_pypy</td><td style="vertical-align:top;">:</td><td><div>False</div></td></tr><tr><td style="font-weight:bold;vertical-align:top;">is_source</td><td style="vertical-align:top;">:</td><td><div>True</div></td></tr><tr><td style="font-weight:bold;vertical-align:top;">local_hosts</td><td style="vertical-align:top;">:</td><td><div><table><tr><td><div>::ffff:127.0.0.1</div></td></tr><tr><td><div>::1</div></td></tr><tr><td><div>macbook-air-de-dayton.local</div></td></tr><tr><td><div>MacBook-Air-de-Dayton.local</div></td></tr><tr><td><div>10.56.224.13</div></td></tr><tr><td><div>127.0.0.1</div></td></tr><tr><td><div>fe80::6676:baff:feb5:f91c%en0</div></td></tr></table></div></td></tr><tr><td style="font-weight:bold;vertical-align:top;">web2py_version</td><td style="vertical-align:top;">:</td><td><div>2.13.4-stable+timestamp.2015.12.26.04.59.39</div></td></tr></table></div></td></tr><tr><td style="font-weight:bold;vertical-align:top;">is_https</td><td style="vertical-align:top;">:</td><td><div>False</div></td></tr><tr><td style="font-weight:bold;vertical-align:top;">is_local</td><td style="vertical-align:top;">:</td><td><div>True</div></td></tr><tr><td style="font-weight:bold;vertical-align:top;">is_restful</td><td style="vertical-align:top;">:</td><td><div>False</div></td></tr><tr><td style="font-weight:bold;vertical-align:top;">is_scheduler</td><td style="vertical-align:top;">:</td><td><div>False</div></td></tr><tr><td style="font-weight:bold;vertical-align:top;">is_shell</td><td style="vertical-align:top;">:</td><td><div>False</div></td></tr><tr><td style="font-weight:bold;vertical-align:top;">now</td><td style="vertical-align:top;">:</td><td><div>datetime.datetime(2016, 2, 4, 11, 48, 27, 282373)</div></td></tr><tr><td style="font-weight:bold;vertical-align:top;">raw_args</td><td style="vertical-align:top;">:</td><td><div>Especializacion/new/Especializacion</div></td></tr><tr><td style="font-weight:bold;vertical-align:top;">raw_extension</td><td style="vertical-align:top;">:</td><td><div>None</div></td></tr><tr><td style="font-weight:bold;vertical-align:top;">url</td><td style="vertical-align:top;">:</td><td><div>/Proyecto_Fase_I/default/especializacion/Especializacion/new/Especializacion</div></td></tr><tr><td style="font-weight:bold;vertical-align:top;">utcnow</td><td style="vertical-align:top;">:</td><td><div>datetime.datetime(2016, 2, 4, 17, 48, 27, 282382)</div></td></tr><tr><td style="font-weight:bold;vertical-align:top;">wsgi</td><td style="vertical-align:top;">:</td><td><div>&lt;gluon.main.LazyWSGI object at 0x115b87e50&gt;</div></td></tr></table></div>'
tRp62
sS'frames'
p63
(lp64
(dp65
S'file'
p66
S'/Users/daytongarcia/web2py/gluon/restricted.py'
p67
sS'dump'
p68
(dp69
S'environment'
p70
S"{'A': <class 'gluon.html.A'>, 'ANY_OF': <class 'gluon.validators.ANY_OF'>, 'ASSIGNJS': <function ASSIGNJS>, 'AppConfig': <function AppConfig>, 'Auth': <class 'gluon.tools.Auth'>, 'B': <class 'gluon.html.B'>, 'BEAUTIFY': <class 'gluon.html.BEAUTIFY'>, 'BODY': <class 'gluon.html.BODY'>, 'BR': <class 'gluon.html.BR'>, 'BUTTON': <class 'gluon.html.BUTTON'>, ...}"
p71
sS'ccode'
p72
S'<code object <module> at 0x115e069b0, file "/Use.../Proyecto_Fase_I/controllers/default.py", line 3>'
p73
ssS'lnum'
p74
I227
sS'lines'
p75
(dp76
I224
S'            ccode = code'
p77
sI225
S'        else:'
p78
sI226
S'            ccode = compile2(code, layer)'
p79
sI227
S'        exec ccode in environment'
p80
sI228
S'    except HTTP:'
p81
sI229
S'        raise'
p82
sI230
S'    except RestrictedError:'
p83
sI231
S'        # do not encapsulate (obfuscate) the original RestrictedError'
p84
sI222
S'    try:'
p85
sI223
S'        if isinstance(code, types.CodeType):'
p86
ssS'call'
p87
S"(code='# -*- coding: utf-8 -*-\\n### required - do no del...response._vars=response._caller(especializacion)\\n', environment={'A': <class 'gluon.html.A'>, 'ANY_OF': <class 'gluon.validators.ANY_OF'>, 'ASSIGNJS': <function ASSIGNJS>, 'AppConfig': <function AppConfig>, 'Auth': <class 'gluon.tools.Auth'>, 'B': <class 'gluon.html.B'>, 'BEAUTIFY': <class 'gluon.html.BEAUTIFY'>, 'BODY': <class 'gluon.html.BODY'>, 'BR': <class 'gluon.html.BR'>, 'BUTTON': <class 'gluon.html.BUTTON'>, ...}, layer='/Users/daytongarcia/web2py/applications/Proyecto_Fase_I/controllers/default.py')"
p88
sS'func'
p89
S'restricted'
p90
sa(dp91
g66
S'/Users/daytongarcia/web2py/applications/Proyecto_Fase_I/controllers/default.py'
p92
sg68
(dp93
sg74
I18
sg75
(dp94
I7
S'def index():'
p95
sI8
S'    return dict()'
p96
sI9
S''
sI10
S'@auth.requires_login()'
p97
sI11
S'def especializacion():'
p98
sI12
S'    form = SQLFORM.smartgrid(db.Especializacion,onupdate=auth.archive)'
p99
sI13
S'    return locals()'
p100
sI14
S''
sI15
S'def error():'
p101
sI16
S'    return dict()'
p102
ssg87
S'()'
p103
sg89
S'<module>'
p104
sa(dp105
g66
S'/Users/daytongarcia/web2py/gluon/globals.py'
p106
sg68
(dp107
S'self'
p108
S'undefined'
p109
sS'f'
S'<function especializacion>'
p110
ssg74
I412
sg75
(dp111
I416
S"        self.generic_patterns = ['*']"
p112
sI407
S"        self.flash = ''            # used by the default view layout"
p113
sI408
S'        self.meta = Storage()      # used by web2py_ajax.html'
p114
sI409
S'        self.menu = []             # used by the default view layout'
p115
sI410
S'        self.files = []            # used by web2py_ajax.html'
p116
sI411
S'        self._vars = None'
p117
sI412
S'        self._caller = lambda f: f()'
p118
sI413
S'        self._view_environment = None'
p119
sI414
S'        self._custom_commit = None'
p120
sI415
S'        self._custom_rollback = None'
p121
ssg87
S'(f=<function especializacion>)'
p122
sg89
S'<lambda>'
p123
sa(dp124
g66
S'/Users/daytongarcia/web2py/gluon/tools.py'
p125
sg68
(dp126
S'action'
p127
S'<function especializacion>'
p128
sS'a'
S'()'
p129
sS'b'
g21
ssg74
I4236
sg75
(dp130
I4231
S'                    flag = condition'
p131
sI4232
S'                if not flag:'
p132
sI4233
S'                    current.session.flash = self.messages.access_denied'
p133
sI4234
S'                    return call_or_redirect('
p134
sI4235
S'                        self.settings.on_failed_authorization)'
p135
sI4236
S'                return action(*a, **b)'
p136
sI4237
S'            f.__doc__ = action.__doc__'
p137
sI4238
S'            f.__name__ = action.__name__'
p138
sI4239
S'            f.__dict__.update(action.__dict__)'
p139
sI4240
S'            return f'
p140
ssg87
S'(*a=(), **b={})'
p141
sg89
S'f'
sa(dp142
g66
S'/Users/daytongarcia/web2py/applications/Proyecto_Fase_I/controllers/default.py'
p143
sg68
(dp144
S'db.Especializacion'
p145
S'<Table Especializacion (id,Detalle)>'
p146
sS'auth.archive'
p147
S'<function archive>'
p148
sS'form'
p149
g109
sS'global SQLFORM'
p150
S"<class 'gluon.sqlhtml.SQLFORM'>"
p151
sS'global auth'
p152
S'<gluon.tools.Auth object>'
p153
sS'onupdate'
p154
g109
sS'global db'
p155
S'<DAL uri="mysql:******@db4free.net:3306/ayd2">'
p156
sS'SQLFORM.smartgrid'
p157
S'<function smartgrid>'
p158
ssg74
I12
sg75
(dp159
I7
S'def index():'
p160
sI8
S'    return dict()'
p161
sI9
S''
sI10
S'@auth.requires_login()'
p162
sI11
S'def especializacion():'
p163
sI12
S'    form = SQLFORM.smartgrid(db.Especializacion,onupdate=auth.archive)'
p164
sI13
S'    return locals()'
p165
sI14
S''
sI15
S'def error():'
p166
sI16
S'    return dict()'
p167
ssg87
S'()'
p168
sg89
S'especializacion'
p169
sa(dp170
g66
S'/Users/daytongarcia/web2py/gluon/sqlhtml.py'
p171
sg68
(dp172
S'user_signature'
p173
S'True'
p174
sS'kwargs'
p175
S"{'onupdate': <function archive>}"
p176
ssg74
I3056
sg75
(dp177
I3051
S'                                A(SPAN(t), cid=request.cid, _href=url('
p178
sI3052
S'                                    args=[args0, row[id_field_name]])))'
p179
sI3053
S'        links += linked'
p180
sI3054
S'        grid = SQLFORM.grid(query, args=request.args[:nargs], links=links,'
p181
sI3055
S'                            links_in_grid=links_in_grid,'
p182
sI3056
S'                            user_signature=user_signature, **kwargs)'
p183
sI3057
S''
sI3058
S'        if isinstance(grid, DIV):'
p184
sI3059
S'            header = table._plural'
p185
sI3060
S'            next = grid.create_form or grid.update_form or grid.view_form'
p186
ssg87
S"(table=<Table Especializacion (id,Detalle)>, constraints={}, linked_tables=['web2py_session_Proyecto_Fase_I', 'auth_user', ...on', 'auth_event', 'auth_cas', 'Especializacion'], links=[], links_in_grid=True, args=[], user_signature=True, divider='>', breadcrumbs_class='', **kwargs={'onupdate': <function archive>})"
p187
sg89
S'smartgrid'
p188
sa(dp189
g66
S'/Users/daytongarcia/web2py/gluon/sqlhtml.py'
p190
sg68
(dp191
S'oncreate'
p192
S'None'
p193
sS'onsuccess'
p194
g109
ssg74
I2275
sg75
(dp195
I2272
S'                                next=referrer,'
p196
sI2273
S'                                onvalidation=onvalidation,'
p197
sI2274
S'                                onfailure=onfailure,'
p198
sI2275
S'                                onsuccess=oncreate)'
p199
sI2276
S'            res = DIV(buttons(), create_form, formfooter, _class=_class)'
p200
sI2277
S'            res.create_form = create_form'
p201
sI2278
S'            res.update_form = update_form'
p202
sI2279
S'            res.view_form = view_form'
p203
sI2270
S'            create_form = SQLFORM(table, **sqlformargs)'
p204
sI2271
S'            create_form.process(formname=formname,'
p205
ssg87
S"(query=<Query (Especializacion.id IS NOT NULL)>, fields=[<pydal.objects.Field object>, <pydal.objects.Field object>], field_id=<pydal.objects.Field object>, left=None, headers={}, orderby=None, groupby=None, searchable=True, sortable=True, paginate=20, deletable=True, editable=True, details=True, selectable=None, create=True, csv=True, links=[], links_in_grid=True, upload=<function <lambda>>, args=['Especializacion'], user_signature=True, maxtextlengths={}, maxtextlength=20, onvalidation=None, onfailure=None, oncreate=None, onupdate=<function archive>, ondelete=None, sorter_icons=(<gluon.html.XML object>, <gluon.html.XML object>), ui={'button': 'button btn btn-default', 'buttonadd': 'icon plus icon-plus glyphicon glyphicon-plus', 'buttonback': 'icon leftarrow icon-arrow-left glyphicon glyphicon-arrow-left', 'buttondelete': 'icon trash icon-trash glyphicon glyphicon-trash', 'buttonedit': 'icon pen icon-pencil glyphicon glyphicon-pencil', 'buttonexport': 'icon downarrow icon-download glyphicon glyphicon-download', 'buttontable': 'icon rightarrow icon-arrow-right glyphicon glyphicon-arrow-right', 'buttontext': 'buttontext button', 'buttonview': 'icon magnifier icon-zoom-in glyphicon glyphicon-zoom-in', 'content': '', ...}, showbuttontext=True, _class='web2py_grid', formname='web2py_grid', search_widget='default', advanced_search=True, ignore_rw=False, formstyle='bootstrap3_inline', exportclasses=None, formargs={}, createargs={}, editargs={}, viewargs={}, selectable_submit_button='Submit', buttons_placement='right', links_placement='right', noconfirm=False, cache_count=None, client_side_delete=False, ignore_common_filters=None, auto_pagination=True, use_cursor=False)"
p206
sg89
S'grid'
p207
sa(dp208
g66
S'/Users/daytongarcia/web2py/gluon/html.py'
p209
sg68
(dp210
S'self'
p211
S'<gluon.sqlhtml.SQLFORM object>'
p212
sS'self.validate'
p213
S'<bound method SQLFORM.validate of <gluon.sqlhtml.SQLFORM object>>'
p214
sS'kwargs'
p215
S"{'dbio': True, 'formname': 'web2py_grid', 'next': '/Proyecto_Fase_I/default/especializacion/Especia...ignature=e8f703f32dbe7284aba6757bf0ac17e3f4a51a3a', 'onfailure': None, 'onsuccess': None, 'onvalidation': None}"
p216
ssg74
I2304
sg75
(dp217
I2304
S'        self.validate(**kwargs)'
p218
sI2305
S'        return self'
p219
sI2306
S''
sI2307
S'    REDIRECT_JS = "window.location=\'%s\';return false"'
p220
sI2308
S''
sI2299
S''
sI2300
S''
sI2301
S'        """'
p221
sI2302
S"        kwargs['dbio'] = kwargs.get('dbio', True)"
p222
sI2303
S'                                    # necessary for SQLHTML forms'
p223
ssg87
S"(self=<gluon.sqlhtml.SQLFORM object>, **kwargs={'dbio': True, 'formname': 'web2py_grid', 'next': '/Proyecto_Fase_I/default/especializacion/Especia...ignature=e8f703f32dbe7284aba6757bf0ac17e3f4a51a3a', 'onfailure': None, 'onsuccess': None, 'onvalidation': None})"
p224
sg89
S'process'
p225
sa(dp226
g66
S'/Users/daytongarcia/web2py/gluon/html.py'
p227
sg68
(dp228
S'self'
p229
S'<gluon.sqlhtml.SQLFORM object>'
p230
sS'self.accepts'
p231
S'<bound method SQLFORM.accepts of <gluon.sqlhtml.SQLFORM object>>'
p232
sS'kwargs'
p233
S"{'dbio': True, 'formname': 'web2py_grid', 'onvalidation': None, 'request_vars': <Storage {'_formkey': 'b8b66ef0-2839-4a1c-bd74-4...rmname': 'web2py_grid', 'Detalle': 'matematica'}>, 'session': <Storage {'auth': <Storage {'remember_me': False...ature=e8f703f32dbe7284aba6757bf0ac17e3f4a51a3a'}>}"
p234
ssg74
I2241
sg75
(dp235
I2240
S''
sI2241
S'        if self.accepts(**kwargs):'
p236
sI2242
S"            if onsuccess == 'flash':"
p237
sI2243
S'                if next:'
p238
sI2244
S'                    current.session.flash = message_onsuccess'
p239
sI2245
S'                else:'
p240
sI2236
S"        for key in ('message_onsuccess', 'message_onfailure', 'onsuccess',"
p241
sI2237
S"                    'onfailure', 'next', 'message_onchange', 'onchange'):"
p242
sI2238
S'            if key in kwargs:'
p243
sI2239
S'                del kwargs[key]'
p244
ssg87
S"(self=<gluon.sqlhtml.SQLFORM object>, **kwargs={'dbio': True, 'formname': 'web2py_grid', 'onvalidation': None, 'request_vars': <Storage {'_formkey': 'b8b66ef0-2839-4a1c-bd74-4...rmname': 'web2py_grid', 'Detalle': 'matematica'}>, 'session': <Storage {'auth': <Storage {'remember_me': False...ature=e8f703f32dbe7284aba6757bf0ac17e3f4a51a3a'}>})"
p245
sg89
S'validate'
p246
sa(dp247
g66
S'/Users/daytongarcia/web2py/gluon/sqlhtml.py'
p248
sg68
(dp249
S'self.vars.id'
p250
S'None'
p251
sS'fields'
p252
S"{'Detalle': 'matematica'}"
p253
sS'self'
p254
S'<gluon.sqlhtml.SQLFORM object>'
p255
sS'self.vars'
p256
S"<Storage {'Detalle': 'matematica'}>"
p257
sS'self.table.insert'
p258
S'<bound method Table.insert of <Table Especializacion (id,Detalle)>>'
p259
sS'self.table'
p260
S'<Table Especializacion (id,Detalle)>'
p261
ssg74
I1722
sg75
(dp262
I1717
S'                    self.vars.id = self.record[self.id_field_name]'
p263
sI1718
S'                    if fields:'
p264
sI1719
S'                        self.table._db(self.table._id == self.record['
p265
sI1720
S'                                       self.id_field_name]).update(**fields)'
p266
sI1721
S'                else:'
p267
sI1722
S'                    self.vars.id = self.table.insert(**fields)'
p268
sI1723
S'        self.accepted = ret'
p269
sI1724
S'        return ret'
p270
sI1725
S''
sI1726
S'    AUTOTYPES = {'
p271
ssg87
S"(self=<gluon.sqlhtml.SQLFORM object>, request_vars=<Storage {'_formkey': 'b8b66ef0-2839-4a1c-bd74-4...rmname': 'web2py_grid', 'Detalle': 'matematica'}>, session=<Storage {'auth': <Storage {'remember_me': False...ature=e8f703f32dbe7284aba6757bf0ac17e3f4a51a3a'}>, formname='web2py_grid', keepvalues=False, onvalidation=None, dbio=True, hideerror=False, detect_record_change=False, **kwargs={})"
p272
sg89
S'accepts'
p273
sa(dp274
g66
S'/Users/daytongarcia/web2py/gluon/packages/dal/pydal/objects.py'
p275
sg68
(dp276
S'self._listify'
p277
S'<bound method Table._listify of <Table Especializacion (id,Detalle)>>'
p278
sS'fields'
p279
S"{'Detalle': 'matematica'}"
p280
sS'self'
p281
S'<Table Especializacion (id,Detalle)>'
p282
sS'ret'
p283
g109
sS'self._db._adapter'
p284
S'<pydal.adapters.mysql.MySQLAdapter object>'
p285
sS'self._db._adapter.insert'
p286
S'<bound method MySQLAdapter.insert of <pydal.adapters.mysql.MySQLAdapter object>>'
p287
sS'self._db'
p288
S'<DAL uri="mysql:******@db4free.net:3306/ayd2">'
p289
ssg74
I731
sg75
(dp290
I726
S'    def insert(self, **fields):'
p291
sI727
S'        fields = self._defaults(fields)'
p292
sI728
S'        self._attempt_upload(fields)'
p293
sI729
S'        if any(f(fields) for f in self._before_insert):'
p294
sI730
S'            return 0'
p295
sI731
S'        ret = self._db._adapter.insert(self, self._listify(fields))'
p296
sI732
S'        if ret and self._after_insert:'
p297
sI733
S'            fields = Row(fields)'
p298
sI734
S'            [f(fields, ret) for f in self._after_insert]'
p299
sI735
S'        return ret'
p300
ssg87
S"(self=<Table Especializacion (id,Detalle)>, **fields={'Detalle': 'matematica'})"
p301
sg89
S'insert'
p302
sa(dp303
g66
S'/Users/daytongarcia/web2py/gluon/packages/dal/pydal/adapters/base.py'
p304
sg68
(dp305
S'e'
S'ProgrammingError(1146, u"Table \'ayd2.Especializacion\' doesn\'t exist")'
p306
ssg74
I746
sg75
(dp307
I741
S'            self.execute(query)'
p308
sI742
S'        except Exception:'
p309
sI743
S'            e = sys.exc_info()[1]'
p310
sI744
S"            if hasattr(table,'_on_insert_error'):"
p311
sI745
S'                return table._on_insert_error(table,fields,e)'
p312
sI746
S'            raise e'
p313
sI747
S"        if hasattr(table, '_primarykey'):"
p314
sI748
S'            mydict = dict([(k[0].name, k[1]) for k in fields if k[0].name in table._primarykey])'
p315
sI749
S'            if mydict != {}:'
p316
sI750
S'                return mydict'
p317
ssg87
S"(self=<pydal.adapters.mysql.MySQLAdapter object>, table=<Table Especializacion (id,Detalle)>, fields=[(<pydal.objects.Field object>, 'matematica')])"
p318
sg89
g302
sasS'pyver'
p319
S'Python 2.7.10: /usr/bin/python (prefix: /System/Library/Frameworks/Python.framework/Versions/2.7)'
p320
sS'session'
p321
g61
(S's\xec\x08\x00\x00<div><table><tr><td style="font-weight:bold;vertical-align:top;">auth</td><td style="vertical-align:top;">:</td><td><div><table><tr><td style="font-weight:bold;vertical-align:top;">expiration</td><td style="vertical-align:top;">:</td><td><div>3600</div></td></tr><tr><td style="font-weight:bold;vertical-align:top;">hmac_key</td><td style="vertical-align:top;">:</td><td><div>e552d9cc-4172-481d-bad1-915d04316027</div></td></tr><tr><td style="font-weight:bold;vertical-align:top;">last_visit</td><td style="vertical-align:top;">:</td><td><div>datetime.datetime(2016, 2, 4, 11, 48, 7, 213247)</div></td></tr><tr><td style="font-weight:bold;vertical-align:top;">remember_me</td><td style="vertical-align:top;">:</td><td><div>False</div></td></tr><tr><td style="font-weight:bold;vertical-align:top;">user</td><td style="vertical-align:top;">:</td><td><div><table><tr><td style="font-weight:bold;vertical-align:top;">email</td><td style="vertical-align:top;">:</td><td><div>danigay@gmail.com</div></td></tr><tr><td style="font-weight:bold;vertical-align:top;">first_name</td><td style="vertical-align:top;">:</td><td><div>danigay</div></td></tr><tr><td style="font-weight:bold;vertical-align:top;">id</td><td style="vertical-align:top;">:</td><td><div>11L</div></td></tr><tr><td style="font-weight:bold;vertical-align:top;">last_name</td><td style="vertical-align:top;">:</td><td><div>danigay</div></td></tr><tr><td style="font-weight:bold;vertical-align:top;">registration_id</td><td style="vertical-align:top;">:</td><td><div></div></td></tr><tr><td style="font-weight:bold;vertical-align:top;">registration_key</td><td style="vertical-align:top;">:</td><td><div></div></td></tr><tr><td style="font-weight:bold;vertical-align:top;">reset_password_key</td><td style="vertical-align:top;">:</td><td><div></div></td></tr></table></div></td></tr><tr><td style="font-weight:bold;vertical-align:top;">user_groups</td><td style="vertical-align:top;">:</td><td><div><table><tr><td style="font-weight:bold;vertical-align:top;">1</td><td style="vertical-align:top;">:</td><td><div>user_11</div></td></tr></table></div></td></tr></table></div></td></tr><tr><td style="font-weight:bold;vertical-align:top;">flash</td><td style="vertical-align:top;">:</td><td><div>None</div></td></tr></table></div>'
tRp322
sS'etype'
p323
S"<class 'gluon.contrib.pymysql.err.ProgrammingError'>"
p324
sS'date'
p325
S'Thu Feb  4 11:48:29 2016'
p326
sS'response'
p327
g61
(S's,\x1c\x00\x00<div><table><tr><td style="font-weight:bold;vertical-align:top;">body</td><td style="vertical-align:top;">:</td><td><div>&lt;cStringIO.StringO object at 0x1160d4b90&gt;</div></td></tr><tr><td style="font-weight:bold;vertical-align:top;">cookies</td><td style="vertical-align:top;">:</td><td><div><table><tr><td style="font-weight:bold;vertical-align:top;">session_id_proyecto_fase_i</td><td style="vertical-align:top;">:</td><td><div>3:03b32bba-4469-4353-8537-4431ab998da2<table><tr><td style="font-weight:bold;vertical-align:top;">comment</td><td style="vertical-align:top;">:</td><td><div></div></td></tr><tr><td style="font-weight:bold;vertical-align:top;">domain</td><td style="vertical-align:top;">:</td><td><div></div></td></tr><tr><td style="font-weight:bold;vertical-align:top;">expires</td><td style="vertical-align:top;">:</td><td><div></div></td></tr><tr><td style="font-weight:bold;vertical-align:top;">httponly</td><td style="vertical-align:top;">:</td><td><div></div></td></tr><tr><td style="font-weight:bold;vertical-align:top;">max-age</td><td style="vertical-align:top;">:</td><td><div></div></td></tr><tr><td style="font-weight:bold;vertical-align:top;">path</td><td style="vertical-align:top;">:</td><td><div>/</div></td></tr><tr><td style="font-weight:bold;vertical-align:top;">secure</td><td style="vertical-align:top;">:</td><td><div></div></td></tr><tr><td style="font-weight:bold;vertical-align:top;">version</td><td style="vertical-align:top;">:</td><td><div></div></td></tr></table></div></td></tr></table></div></td></tr><tr><td style="font-weight:bold;vertical-align:top;">delimiters</td><td style="vertical-align:top;">:</td><td><div><table><tr><td><div>{{</div></td></tr><tr><td><div>}}</div></td></tr></table></div></td></tr><tr><td style="font-weight:bold;vertical-align:top;">files</td><td style="vertical-align:top;">:</td><td><div><table></table></div></td></tr><tr><td style="font-weight:bold;vertical-align:top;">flash</td><td style="vertical-align:top;">:</td><td><div></div></td></tr><tr><td style="font-weight:bold;vertical-align:top;">form_label_separator</td><td style="vertical-align:top;">:</td><td><div></div></td></tr><tr><td style="font-weight:bold;vertical-align:top;">formstyle</td><td style="vertical-align:top;">:</td><td><div>bootstrap3_inline</div></td></tr><tr><td style="font-weight:bold;vertical-align:top;">generic_patterns</td><td style="vertical-align:top;">:</td><td><div><table><tr><td><div>*</div></td></tr></table></div></td></tr><tr><td style="font-weight:bold;vertical-align:top;">headers</td><td style="vertical-align:top;">:</td><td><div><table><tr><td style="font-weight:bold;vertical-align:top;">X-Powered-By</td><td style="vertical-align:top;">:</td><td><div>web2py</div></td></tr></table></div></td></tr><tr><td style="font-weight:bold;vertical-align:top;">menu</td><td style="vertical-align:top;">:</td><td><div><table><tr><td><div><table><tr><td><div>\xc3\x8dndice</div></td></tr><tr><td><div>False</div></td></tr><tr><td><div>/Proyecto_Fase_I/default/index</div></td></tr><tr><td><div><table></table></div></td></tr></table></div></td></tr><tr><td><div><table><tr><td><div>Especializacion</div></td></tr><tr><td><div>True</div></td></tr><tr><td><div>/Proyecto_Fase_I/default/especializacion</div></td></tr><tr><td><div><table></table></div></td></tr></table></div></td></tr></table></div></td></tr><tr><td style="font-weight:bold;vertical-align:top;">meta</td><td style="vertical-align:top;">:</td><td><div><table><tr><td style="font-weight:bold;vertical-align:top;">author</td><td style="vertical-align:top;">:</td><td><div>you &lt;you@example.com&gt;</div></td></tr><tr><td style="font-weight:bold;vertical-align:top;">description</td><td style="vertical-align:top;">:</td><td><div></div></td></tr><tr><td style="font-weight:bold;vertical-align:top;">keywords</td><td style="vertical-align:top;">:</td><td><div></div></td></tr></table></div></td></tr><tr><td style="font-weight:bold;vertical-align:top;">models_to_run</td><td style="vertical-align:top;">:</td><td><div><table><tr><td><div>^\\w+\\.py$</div></td></tr><tr><td><div>^default/\\w+\\.py$</div></td></tr><tr><td><div>^default/especializacion/\\w+\\.py$</div></td></tr></table></div></td></tr><tr><td style="font-weight:bold;vertical-align:top;">postprocessing</td><td style="vertical-align:top;">:</td><td><div><table></table></div></td></tr><tr><td style="font-weight:bold;vertical-align:top;">session_client</td><td style="vertical-align:top;">:</td><td><div>127.0.0.1</div></td></tr><tr><td style="font-weight:bold;vertical-align:top;">session_cookie_compression_level</td><td style="vertical-align:top;">:</td><td><div>None</div></td></tr><tr><td style="font-weight:bold;vertical-align:top;">session_cookie_expires</td><td style="vertical-align:top;">:</td><td><div>None</div></td></tr><tr><td style="font-weight:bold;vertical-align:top;">session_cookie_key</td><td style="vertical-align:top;">:</td><td><div>None</div></td></tr><tr><td style="font-weight:bold;vertical-align:top;">session_data_name</td><td style="vertical-align:top;">:</td><td><div>session_data_proyecto_fase_i</div></td></tr><tr><td style="font-weight:bold;vertical-align:top;">session_db_record_id</td><td style="vertical-align:top;">:</td><td><div>3L</div></td></tr><tr><td style="font-weight:bold;vertical-align:top;">session_db_table</td><td style="vertical-align:top;">:</td><td><div>&lt;Table web2py_session_Proyecto_Fase_I (id,locked,client_ip,created_datetime,modified_datetime,unique_key,session_data)&gt;</div></td></tr><tr><td style="font-weight:bold;vertical-align:top;">session_db_unique_key</td><td style="vertical-align:top;">:</td><td><div>03b32bba-4469-4353-8537-4431ab998da2</div></td></tr><tr><td style="font-weight:bold;vertical-align:top;">session_hash</td><td style="vertical-align:top;">:</td><td><div>3598a3d65df2d0b564d938ee04698c3f</div></td></tr><tr><td style="font-weight:bold;vertical-align:top;">session_id</td><td style="vertical-align:top;">:</td><td><div>3:03b32bba-4469-4353-8537-4431ab998da2</div></td></tr><tr><td style="font-weight:bold;vertical-align:top;">session_id_name</td><td style="vertical-align:top;">:</td><td><div>session_id_proyecto_fase_i</div></td></tr><tr><td style="font-weight:bold;vertical-align:top;">session_masterapp</td><td style="vertical-align:top;">:</td><td><div>Proyecto_Fase_I</div></td></tr><tr><td style="font-weight:bold;vertical-align:top;">session_new</td><td style="vertical-align:top;">:</td><td><div>False</div></td></tr><tr><td style="font-weight:bold;vertical-align:top;">session_storage_type</td><td style="vertical-align:top;">:</td><td><div>db</div></td></tr><tr><td style="font-weight:bold;vertical-align:top;">status</td><td style="vertical-align:top;">:</td><td><div>200</div></td></tr><tr><td style="font-weight:bold;vertical-align:top;">subtitle</td><td style="vertical-align:top;">:</td><td><div>powered by web2py</div></td></tr><tr><td style="font-weight:bold;vertical-align:top;">title</td><td style="vertical-align:top;">:</td><td><div>Prueba x</div></td></tr><tr><td style="font-weight:bold;vertical-align:top;">view</td><td style="vertical-align:top;">:</td><td><div>default/especializacion.html</div></td></tr></table></div>'
tRp328
sS'locals'
p329
(dp330
S'fields'
p331
S"[(<pydal.objects.Field object>, 'matematica')]"
p332
sS'self'
p333
S'<pydal.adapters.mysql.MySQLAdapter object>'
p334
sS'e'
S'ProgrammingError(1146, u"Table \'ayd2.Especializacion\' doesn\'t exist")'
p335
sS'table'
p336
S'<Table Especializacion (id,Detalle)>'
p337
sS'query'
p338
S'"INSERT INTO Especializacion(Detalle) VALUES (\'matematica\');"'
p339
sssS'traceback'
p340
S'Traceback (most recent call last):\n  File "/Users/daytongarcia/web2py/gluon/restricted.py", line 227, in restricted\n    exec ccode in environment\n  File "/Users/daytongarcia/web2py/applications/Proyecto_Fase_I/controllers/default.py", line 18, in <module>\n  File "/Users/daytongarcia/web2py/gluon/globals.py", line 412, in <lambda>\n    self._caller = lambda f: f()\n  File "/Users/daytongarcia/web2py/gluon/tools.py", line 4236, in f\n    return action(*a, **b)\n  File "/Users/daytongarcia/web2py/applications/Proyecto_Fase_I/controllers/default.py", line 12, in especializacion\n    form = SQLFORM.smartgrid(db.Especializacion,onupdate=auth.archive)\n  File "/Users/daytongarcia/web2py/gluon/sqlhtml.py", line 3056, in smartgrid\n    user_signature=user_signature, **kwargs)\n  File "/Users/daytongarcia/web2py/gluon/sqlhtml.py", line 2275, in grid\n    onsuccess=oncreate)\n  File "/Users/daytongarcia/web2py/gluon/html.py", line 2304, in process\n    self.validate(**kwargs)\n  File "/Users/daytongarcia/web2py/gluon/html.py", line 2241, in validate\n    if self.accepts(**kwargs):\n  File "/Users/daytongarcia/web2py/gluon/sqlhtml.py", line 1722, in accepts\n    self.vars.id = self.table.insert(**fields)\n  File "/Users/daytongarcia/web2py/gluon/packages/dal/pydal/objects.py", line 731, in insert\n    ret = self._db._adapter.insert(self, self._listify(fields))\n  File "/Users/daytongarcia/web2py/gluon/packages/dal/pydal/adapters/base.py", line 746, in insert\n    raise e\nProgrammingError: (1146, u"Table \'ayd2.Especializacion\' doesn\'t exist")\n'
p341
s.