(dp1
S'output'
p2
S"<class 'gluon.contrib.pymysql.err.IntegrityError'> (1452, u'Cannot add or update a child row: a foreign key constraint fails (`ayd2`.`ALUMNO_archive`, CONSTRAINT `ALUMNO_archive_ibfk_1` FOREIGN KEY (`current_record`) REFERENCES `ALUMNO` (`ID`) ON DELETE CASCADE)')"
p3
sS'layer'
p4
S'/home/rocael/web2py/applications/Proyecto_Fase_I_Rocael/controllers/default.py'
p5
sS'code'
p6
S'# -*- coding: utf-8 -*-\n### required - do no delete\ndef user(): return dict(form=auth())\ndef download(): return response.download(request,db)\ndef call(): return service()\n### end requires\ndef index():\n    return dict()\n\ndef error():\n    return dict()\n\n@auth.requires_login()\ndef alumnos():\n    form = SQLFORM.smartgrid(db.ALUMNO,onupdate=auth.archive)\n    return locals()\n\nresponse._vars=response._caller(alumnos)\n'
p7
sS'snapshot'
p8
(dp9
sS'traceback'
p10
S'Traceback (most recent call last):\n  File "/home/rocael/web2py/gluon/restricted.py", line 227, in restricted\n    exec ccode in environment\n  File "/home/rocael/web2py/applications/Proyecto_Fase_I_Rocael/controllers/default.py", line 18, in <module>\n  File "/home/rocael/web2py/gluon/globals.py", line 412, in <lambda>\n    self._caller = lambda f: f()\n  File "/home/rocael/web2py/gluon/tools.py", line 4236, in f\n    return action(*a, **b)\n  File "/home/rocael/web2py/applications/Proyecto_Fase_I_Rocael/controllers/default.py", line 15, in alumnos\n    form = SQLFORM.smartgrid(db.ALUMNO,onupdate=auth.archive)\n  File "/home/rocael/web2py/gluon/sqlhtml.py", line 3056, in smartgrid\n    user_signature=user_signature, **kwargs)\n  File "/home/rocael/web2py/gluon/sqlhtml.py", line 2319, in grid\n    next=referrer)\n  File "/home/rocael/web2py/gluon/html.py", line 2304, in process\n    self.validate(**kwargs)\n  File "/home/rocael/web2py/gluon/html.py", line 2248, in validate\n    onsuccess(self)\n  File "/home/rocael/web2py/gluon/tools.py", line 4651, in archive\n    id = archive_table.insert(**new_record)\n  File "/home/rocael/web2py/gluon/packages/dal/pydal/objects.py", line 731, in insert\n    ret = self._db._adapter.insert(self, self._listify(fields))\n  File "/home/rocael/web2py/gluon/packages/dal/pydal/adapters/base.py", line 746, in insert\n    raise e\nIntegrityError: (1452, u\'Cannot add or update a child row: a foreign key constraint fails (`ayd2`.`ALUMNO_archive`, CONSTRAINT `ALUMNO_archive_ibfk_1` FOREIGN KEY (`current_record`) REFERENCES `ALUMNO` (`ID`) ON DELETE CASCADE)\')\n'
p11
s.